Certificate:
    Data:
        Version: 3 (0x2)
        Serial Number:
            07:ac:65:7f:f3:8c:c8:ba:9a:d0:97:30:2b:88:67:e8
        Signature Algorithm: sha256WithRSAEncryption
        Issuer: CN=host
        Validity
            Not Before: Nov 19 17:59:16 2024 GMT
            Not After : Feb 22 17:59:16 2027 GMT
        Subject: CN=host
        Subject Public Key Info:
            Public Key Algorithm: rsaEncryption
                Public-Key: (2048 bit)
                Modulus:
                    00:89:c1:6f:7c:a7:9b:dc:87:2e:5d:ed:6b:c4:88:
                    b1:7d:4a:f2:4e:8d:56:61:d5:b7:17:25:29:4f:d6:
                    41:a9:db:fa:a3:c1:cc:fd:5d:24:2d:16:53:ed:9c:
                    96:db:5a:a1:40:72:16:30:08:81:be:cc:ee:8d:e9:
                    da:4c:e2:44:bb:e4:40:bc:be:74:77:56:0a:b9:40:
                    fe:35:ed:9a:fa:a6:25:64:1a:56:6e:b2:fe:ed:40:
                    84:90:1b:10:c2:3c:e8:42:ea:16:8d:22:2f:e2:3d:
                    d4:c0:b6:8b:a5:b0:79:4c:f1:b5:0d:71:57:e4:39:
                    62:49:56:4b:20:6f:ed:2d:bb:9f:e7:aa:ca:35:f2:
                    52:3b:46:a1:fa:12:d7:65:de:d1:47:19:0f:3e:73:
                    67:79:ef:ca:a7:e7:73:ed:82:0c:83:76:24:7e:94:
                    89:0e:2a:ce:34:ad:5b:d5:c7:95:79:be:e2:b7:fd:
                    95:b9:d0:f1:8a:d4:af:12:a7:e5:63:a0:92:08:9a:
                    41:54:1f:ed:31:c4:4a:11:fd:dd:ba:df:03:44:7a:
                    ef:c3:5b:21:4b:ee:0f:5e:d0:c3:c4:ca:d5:2a:4d:
                    6a:5e:8e:ef:ae:3d:42:ed:46:55:0f:fe:03:25:1a:
                    23:c5:3a:1d:65:3d:06:98:b2:f8:38:d4:8d:2c:15:
                    e9:9d
                Exponent: 65537 (0x10001)
        X509v3 extensions:
            X509v3 Basic Constraints: 
                CA:FALSE
            X509v3 Subject Key Identifier: 
                D4:6B:D6:02:F0:5E:70:5B:A4:B3:F4:E6:6D:9C:01:F2:2C:6F:14:27
            X509v3 Authority Key Identifier: 
                keyid:1E:B3:E0:1E:0D:85:AD:DF:08:11:00:64:D1:4B:15:96:EA:D7:DF:93
                DirName:/CN=host
                serial:51:BC:F4:9A:39:E3:0C:C5:5E:80:2A:74:08:F2:4F:A8:68:1A:1A:9B
            X509v3 Extended Key Usage: 
                TLS Web Client Authentication
            X509v3 Key Usage: 
                Digital Signature
    Signature Algorithm: sha256WithRSAEncryption
    Signature Value:
        74:93:fa:92:4b:6c:53:52:14:d1:10:8b:f3:2b:0d:11:ee:88:
        cd:93:af:bd:41:27:62:2e:d8:db:43:28:de:39:7c:a3:11:f1:
        03:03:9e:7d:9a:8a:5f:8f:da:9e:8c:f4:43:a5:5b:9d:1d:c3:
        d4:ac:bd:75:e9:b9:47:1e:31:dd:df:fc:d0:47:9c:81:27:d1:
        f6:11:57:30:49:6d:37:f9:26:b4:f7:df:88:2b:cd:86:68:b1:
        92:23:af:7d:0f:27:29:0d:33:20:b0:b4:7b:db:6e:96:65:56:
        df:97:f5:f4:cc:e9:e4:f7:8b:1d:80:3a:41:14:4d:54:72:9c:
        5a:a3:d9:8e:e1:74:cd:ff:d9:e6:37:d0:53:1d:1f:52:64:bd:
        68:07:d6:dd:25:d6:43:d1:75:35:98:8c:8b:9a:70:e1:a8:da:
        6a:82:d6:3c:1b:fd:b4:13:5b:c9:f4:d0:19:da:2c:94:c5:07:
        da:1a:18:a5:c3:b8:ef:aa:c2:35:b8:2e:04:ac:91:b9:bd:2e:
        0a:ca:00:bd:1e:16:90:25:d6:77:5e:a3:60:a5:84:71:ef:59:
        7b:0c:79:ba:cc:4f:7b:27:32:dc:fe:dc:0b:d1:bc:05:0c:9b:
        8d:0e:2c:e2:92:05:55:68:12:08:07:70:91:17:73:7f:3a:ff:
        c7:cf:b6:16
-----BEGIN CERTIFICATE-----
MIIDRDCCAiygAwIBAgIQB6xlf/OMyLqa0JcwK4hn6DANBgkqhkiG9w0BAQsFADAP
MQ0wCwYDVQQDDARob3N0MB4XDTI0MTExOTE3NTkxNloXDTI3MDIyMjE3NTkxNlow
DzENMAsGA1UEAwwEaG9zdDCCASIwDQYJKoZIhvcNAQEBBQADggEPADCCAQoCggEB
AInBb3ynm9yHLl3ta8SIsX1K8k6NVmHVtxclKU/WQanb+qPBzP1dJC0WU+2cltta
oUByFjAIgb7M7o3p2kziRLvkQLy+dHdWCrlA/jXtmvqmJWQaVm6y/u1AhJAbEMI8
6ELqFo0iL+I91MC2i6WweUzxtQ1xV+Q5YklWSyBv7S27n+eqyjXyUjtGofoS12Xe
0UcZDz5zZ3nvyqfnc+2CDIN2JH6UiQ4qzjStW9XHlXm+4rf9lbnQ8YrUrxKn5WOg
kgiaQVQf7THEShH93brfA0R678NbIUvuD17Qw8TK1SpNal6O7649Qu1GVQ/+AyUa
I8U6HWU9Bpiy+DjUjSwV6Z0CAwEAAaOBmzCBmDAJBgNVHRMEAjAAMB0GA1UdDgQW
BBTUa9YC8F5wW6Sz9OZtnAHyLG8UJzBKBgNVHSMEQzBBgBQes+AeDYWt3wgRAGTR
SxWW6tffk6ETpBEwDzENMAsGA1UEAwwEaG9zdIIUUbz0mjnjDMVegCp0CPJPqGga
GpswEwYDVR0lBAwwCgYIKwYBBQUHAwIwCwYDVR0PBAQDAgeAMA0GCSqGSIb3DQEB
CwUAA4IBAQB0k/qSS2xTUhTREIvzKw0R7ojNk6+9QSdiLtjbQyjeOXyjEfEDA559
mopfj9qejPRDpVudHcPUrL116blHHjHd3/zQR5yBJ9H2EVcwSW03+Sa099+IK82G
aLGSI699DycpDTMgsLR7226WZVbfl/X0zOnk94sdgDpBFE1Ucpxao9mO4XTN/9nm
N9BTHR9SZL1oB9bdJdZD0XU1mIyLmnDhqNpqgtY8G/20E1vJ9NAZ2iyUxQfaGhil
w7jvqsI1uC4ErJG5vS4KygC9HhaQJdZ3XqNgpYRx71l7DHm6zE97JzLc/twL0bwF
DJuNDizikgVVaBIIB3CRF3N/Ov/Hz7YW
-----END CERTIFICATE-----
