Certificate:
    Data:
        Version: 3 (0x2)
        Serial Number:
            23:63:d4:4b:ca:d8:69:43:bf:d0:5b:27:3e:f4:da:67
        Signature Algorithm: sha256WithRSAEncryption
        Issuer: CN=host
        Validity
            Not Before: Nov 19 17:59:16 2024 GMT
            Not After : Feb 22 17:59:16 2027 GMT
        Subject: CN=localhost
        Subject Public Key Info:
            Public Key Algorithm: rsaEncryption
                Public-Key: (2048 bit)
                Modulus:
                    00:af:be:df:5c:c8:f4:eb:00:82:78:7c:1c:b9:30:
                    f8:e3:ce:af:bc:fc:e5:39:2c:35:78:79:ba:bc:0d:
                    60:4d:ac:3d:77:84:b4:ef:c9:7f:9a:9b:b0:af:0c:
                    f7:e9:8b:24:93:d1:68:d3:cb:df:52:62:e3:c9:29:
                    f6:05:2e:7d:5b:b2:36:22:03:90:74:4f:84:f5:45:
                    bd:1d:86:3c:d8:bd:2d:14:4f:8d:5b:95:25:e1:61:
                    8d:ce:83:19:0e:02:d6:1c:c0:bc:84:fa:7d:6f:80:
                    48:43:7f:6a:2b:d0:9b:a2:72:83:32:15:bd:d2:76:
                    c5:53:fa:75:56:f8:07:cc:13:7f:ea:a9:62:9c:9a:
                    29:91:2c:37:d5:a7:51:57:89:7b:95:b5:67:fb:c9:
                    ff:01:8a:e8:89:a5:48:53:af:7b:3e:4b:1b:70:66:
                    43:45:93:51:c9:34:c3:48:07:68:b9:ba:4c:ca:8b:
                    63:e0:df:ce:47:0e:fe:a1:1b:d4:ad:7f:b3:39:62:
                    a1:b5:01:b8:85:7d:bb:a0:b1:4b:5c:8a:1e:47:87:
                    c0:1b:e6:c9:3e:f3:a9:c2:ad:50:c5:12:9e:dc:a8:
                    61:cd:e0:86:5a:d3:37:e9:70:2f:81:07:32:80:40:
                    ca:c2:16:65:07:15:ca:f2:bf:d6:ea:aa:bb:58:b9:
                    d3:d7
                Exponent: 65537 (0x10001)
        X509v3 extensions:
            X509v3 Basic Constraints: 
                CA:FALSE
            X509v3 Subject Key Identifier: 
                23:18:66:77:EB:BA:3F:2F:97:C5:4F:79:63:94:06:73:0A:8B:8F:E8
            X509v3 Authority Key Identifier: 
                keyid:1E:B3:E0:1E:0D:85:AD:DF:08:11:00:64:D1:4B:15:96:EA:D7:DF:93
                DirName:/CN=host
                serial:51:BC:F4:9A:39:E3:0C:C5:5E:80:2A:74:08:F2:4F:A8:68:1A:1A:9B
            X509v3 Extended Key Usage: 
                TLS Web Server Authentication
            X509v3 Key Usage: 
                Digital Signature, Key Encipherment
            X509v3 Subject Alternative Name: 
                DNS:localhost
    Signature Algorithm: sha256WithRSAEncryption
    Signature Value:
        96:8a:5a:46:34:16:c4:d0:7e:e1:f4:5d:4f:91:44:73:0f:bd:
        53:c2:b4:6c:53:00:9d:d7:69:f0:d0:5f:20:8c:b4:02:95:da:
        dc:7b:31:e3:a6:b5:fa:2f:e8:8c:11:8d:6a:a6:2c:7b:53:30:
        f0:08:a9:4d:7b:3d:04:38:5c:bf:15:57:7c:6f:3f:13:20:ca:
        99:54:57:31:43:df:ff:94:60:ed:e4:b7:a0:d6:03:ef:d6:19:
        25:c9:04:5a:7d:25:0a:ac:dc:7a:5b:4a:c7:32:2c:83:17:fe:
        b7:63:0c:e9:89:c0:5d:bc:37:b1:15:51:36:30:8e:0f:80:9a:
        e6:8a:45:31:cb:10:7a:56:cc:05:f5:b5:fb:45:06:25:0e:8b:
        e5:88:0c:24:4d:90:1b:74:41:86:53:c7:bc:3f:60:1c:4a:29:
        60:12:3e:a8:8f:8d:de:51:6f:48:c1:8c:01:5e:8a:7c:5c:05:
        e2:aa:06:1a:83:07:13:28:71:96:d0:03:c4:1a:63:68:67:f5:
        df:f0:18:f1:1b:2b:25:df:3b:5d:3c:74:98:03:10:33:84:07:
        48:47:fc:ad:fd:da:43:9c:d3:78:29:fd:c6:98:e9:6e:0e:e2:
        03:62:07:fa:7c:9f:2e:fb:d5:68:89:28:6a:16:33:3e:9c:53:
        92:9f:6d:2c
-----BEGIN CERTIFICATE-----
MIIDXzCCAkegAwIBAgIQI2PUS8rYaUO/0FsnPvTaZzANBgkqhkiG9w0BAQsFADAP
MQ0wCwYDVQQDDARob3N0MB4XDTI0MTExOTE3NTkxNloXDTI3MDIyMjE3NTkxNlow
FDESMBAGA1UEAwwJbG9jYWxob3N0MIIBIjANBgkqhkiG9w0BAQEFAAOCAQ8AMIIB
CgKCAQEAr77fXMj06wCCeHwcuTD4486vvPzlOSw1eHm6vA1gTaw9d4S078l/mpuw
rwz36Yskk9Fo08vfUmLjySn2BS59W7I2IgOQdE+E9UW9HYY82L0tFE+NW5Ul4WGN
zoMZDgLWHMC8hPp9b4BIQ39qK9CbonKDMhW90nbFU/p1VvgHzBN/6qlinJopkSw3
1adRV4l7lbVn+8n/AYroiaVIU697PksbcGZDRZNRyTTDSAdoubpMyotj4N/ORw7+
oRvUrX+zOWKhtQG4hX27oLFLXIoeR4fAG+bJPvOpwq1QxRKe3KhhzeCGWtM36XAv
gQcygEDKwhZlBxXK8r/W6qq7WLnT1wIDAQABo4GxMIGuMAkGA1UdEwQCMAAwHQYD
VR0OBBYEFCMYZnfruj8vl8VPeWOUBnMKi4/oMEoGA1UdIwRDMEGAFB6z4B4Nha3f
CBEAZNFLFZbq19+ToROkETAPMQ0wCwYDVQQDDARob3N0ghRRvPSaOeMMxV6AKnQI
8k+oaBoamzATBgNVHSUEDDAKBggrBgEFBQcDATALBgNVHQ8EBAMCBaAwFAYDVR0R
BA0wC4IJbG9jYWxob3N0MA0GCSqGSIb3DQEBCwUAA4IBAQCWilpGNBbE0H7h9F1P
kURzD71TwrRsUwCd12nw0F8gjLQCldrcezHjprX6L+iMEY1qpix7UzDwCKlNez0E
OFy/FVd8bz8TIMqZVFcxQ9//lGDt5Leg1gPv1hklyQRafSUKrNx6W0rHMiyDF/63
YwzpicBdvDexFVE2MI4PgJrmikUxyxB6VswF9bX7RQYlDovliAwkTZAbdEGGU8e8
P2AcSilgEj6oj43eUW9IwYwBXop8XAXiqgYagwcTKHGW0APEGmNoZ/Xf8BjxGysl
3ztdPHSYAxAzhAdIR/yt/dpDnNN4Kf3GmOluDuIDYgf6fJ8u+9VoiShqFjM+nFOS
n20s
-----END CERTIFICATE-----
