Certificate:
    Data:
        Version: 3 (0x2)
        Serial Number:
            30:12:a4:e5:cb:37:67:b8:7d:0a:11:bf:83:07:fd:6e
        Signature Algorithm: sha256WithRSAEncryption
        Issuer: CN=localhost
        Validity
            Not Before: Nov 19 17:59:04 2024 GMT
            Not After : Feb 22 17:59:04 2027 GMT
        Subject: CN=localhost
        Subject Public Key Info:
            Public Key Algorithm: rsaEncryption
                Public-Key: (2048 bit)
                Modulus:
                    00:e1:a9:6a:8c:25:98:17:2a:02:f0:3e:a6:9f:c4:
                    03:aa:b1:bd:85:ed:bd:04:24:a2:1b:af:4f:50:ae:
                    3a:f7:96:36:f7:f4:d1:a9:59:54:66:07:ad:33:a0:
                    48:bb:ba:5e:7a:84:bd:d8:6f:c7:1e:4d:b5:81:32:
                    c5:a8:a9:c7:9b:3d:e3:0b:74:55:ea:65:83:99:58:
                    5e:de:af:42:6e:ed:81:35:86:14:9e:11:cf:0e:e2:
                    42:ef:11:a6:5a:7f:7b:81:89:bb:46:ba:0c:cc:cb:
                    f5:b6:6e:3f:00:a6:0e:09:e1:c4:02:8d:d1:21:a4:
                    90:e7:c0:8d:44:ee:8a:74:98:64:14:df:5a:76:bf:
                    98:49:3f:89:06:68:82:a7:e9:37:71:8e:7e:c0:8b:
                    9f:7b:3b:4d:b1:ca:76:67:f6:12:52:e1:0a:07:e3:
                    54:55:aa:e8:f5:e3:6b:fe:33:d0:c0:18:7f:25:86:
                    b5:81:0d:1c:40:be:e0:bb:7d:14:fc:d2:72:cf:ba:
                    e0:fe:64:30:e0:0b:11:e4:dc:5e:29:43:eb:e2:3c:
                    2a:5e:f6:c0:af:ec:00:65:0a:cc:cf:ad:26:e8:79:
                    94:71:a2:31:b2:5f:2d:5f:97:7f:a2:55:08:65:e5:
                    43:c9:98:57:7b:6c:c3:c1:7f:8c:15:5d:91:32:22:
                    b3:43
                Exponent: 65537 (0x10001)
        X509v3 extensions:
            X509v3 Basic Constraints: 
                CA:FALSE
            X509v3 Subject Key Identifier: 
                54:5B:B3:D0:42:D1:07:1F:EF:29:85:49:F7:09:8C:23:BE:CC:D8:5B
            X509v3 Authority Key Identifier: 
                keyid:42:97:1E:33:FD:40:90:70:F2:82:02:BA:AE:3A:D3:05:3C:3B:78:1D
                DirName:/CN=localhost
                serial:33:6B:44:3A:A4:D6:44:16:AA:C8:08:C9:12:7B:71:60:91:25:D2:D4
            X509v3 Extended Key Usage: 
                TLS Web Server Authentication
            X509v3 Key Usage: 
                Digital Signature, Key Encipherment
            X509v3 Subject Alternative Name: 
                DNS:localhost
    Signature Algorithm: sha256WithRSAEncryption
    Signature Value:
        8a:90:db:f0:2e:c9:c2:d1:9e:60:3a:74:96:9c:92:bb:d0:f8:
        2a:67:29:1d:f0:10:62:9a:5f:9d:73:68:e3:70:3d:e7:5d:78:
        a2:b7:e9:41:54:fa:65:e2:63:de:4b:c8:81:e4:44:6e:41:64:
        0b:c2:55:24:31:01:ec:6b:9c:4b:41:e0:7d:79:02:25:4d:11:
        08:d5:36:2a:09:85:dd:b6:41:7b:53:e9:31:4c:48:5c:1b:47:
        63:c6:11:56:96:9c:28:29:c6:4b:80:38:3b:f6:43:44:d7:9a:
        4f:d2:e1:68:6c:1c:5e:6b:6f:04:95:50:ee:1f:99:d9:5a:1b:
        b4:20:f4:71:e3:0b:ac:2d:8d:3e:ee:78:02:3e:f8:1a:e0:33:
        02:ba:91:e4:a8:99:c0:dc:78:4a:0a:d6:bf:e2:f3:3b:88:9a:
        a1:7b:1a:64:c6:e0:28:99:54:a1:06:2c:55:02:9e:58:fb:48:
        ed:ca:2f:5e:3d:85:9e:af:61:67:d8:20:1b:0b:ce:72:46:ad:
        38:64:69:97:b9:fa:15:14:ae:16:09:52:e0:0f:2a:82:16:bf:
        31:5a:84:28:60:37:03:a5:05:08:8c:0f:5d:9e:f5:1a:eb:7a:
        11:24:16:71:2e:fe:93:41:6b:8c:6f:0d:b1:60:28:27:1e:bd:
        79:5c:bd:53
-----BEGIN CERTIFICATE-----
MIIDaTCCAlGgAwIBAgIQMBKk5cs3Z7h9ChG/gwf9bjANBgkqhkiG9w0BAQsFADAU
MRIwEAYDVQQDDAlsb2NhbGhvc3QwHhcNMjQxMTE5MTc1OTA0WhcNMjcwMjIyMTc1
OTA0WjAUMRIwEAYDVQQDDAlsb2NhbGhvc3QwggEiMA0GCSqGSIb3DQEBAQUAA4IB
DwAwggEKAoIBAQDhqWqMJZgXKgLwPqafxAOqsb2F7b0EJKIbr09Qrjr3ljb39NGp
WVRmB60zoEi7ul56hL3Yb8ceTbWBMsWoqcebPeMLdFXqZYOZWF7er0Ju7YE1hhSe
Ec8O4kLvEaZaf3uBibtGugzMy/W2bj8Apg4J4cQCjdEhpJDnwI1E7op0mGQU31p2
v5hJP4kGaIKn6Tdxjn7Ai597O02xynZn9hJS4QoH41RVquj142v+M9DAGH8lhrWB
DRxAvuC7fRT80nLPuuD+ZDDgCxHk3F4pQ+viPCpe9sCv7ABlCszPrSboeZRxojGy
Xy1fl3+iVQhl5UPJmFd7bMPBf4wVXZEyIrNDAgMBAAGjgbYwgbMwCQYDVR0TBAIw
ADAdBgNVHQ4EFgQUVFuz0ELRBx/vKYVJ9wmMI77M2FswTwYDVR0jBEgwRoAUQpce
M/1AkHDyggK6rjrTBTw7eB2hGKQWMBQxEjAQBgNVBAMMCWxvY2FsaG9zdIIUM2tE
OqTWRBaqyAjJEntxYJEl0tQwEwYDVR0lBAwwCgYIKwYBBQUHAwEwCwYDVR0PBAQD
AgWgMBQGA1UdEQQNMAuCCWxvY2FsaG9zdDANBgkqhkiG9w0BAQsFAAOCAQEAipDb
8C7JwtGeYDp0lpySu9D4KmcpHfAQYppfnXNo43A95114orfpQVT6ZeJj3kvIgeRE
bkFkC8JVJDEB7GucS0HgfXkCJU0RCNU2KgmF3bZBe1PpMUxIXBtHY8YRVpacKCnG
S4A4O/ZDRNeaT9LhaGwcXmtvBJVQ7h+Z2VobtCD0ceMLrC2NPu54Aj74GuAzArqR
5KiZwNx4SgrWv+LzO4iaoXsaZMbgKJlUoQYsVQKeWPtI7covXj2Fnq9hZ9ggGwvO
ckatOGRpl7n6FRSuFglS4A8qgha/MVqEKGA3A6UFCIwPXZ71Gut6ESQWcS7+k0Fr
jG8NsWAoJx69eVy9Uw==
-----END CERTIFICATE-----
