Certificate:
    Data:
        Version: 3 (0x2)
        Serial Number:
            60:55:57:fb:f8:6a:34:09:4b:fd:b7:dc:aa:54:45:61
        Signature Algorithm: sha256WithRSAEncryption
        Issuer: CN=host
        Validity
            Not Before: Nov 19 18:44:00 2024 GMT
            Not After : Feb 22 18:44:00 2027 GMT
        Subject: CN=host
        Subject Public Key Info:
            Public Key Algorithm: rsaEncryption
                Public-Key: (2048 bit)
                Modulus:
                    00:bd:69:8f:d9:e4:dd:be:ef:97:c4:e9:0c:be:72:
                    1d:af:33:b1:94:dd:9c:cc:7f:a1:36:14:eb:b6:96:
                    d1:b1:da:ec:25:ae:de:29:1a:ec:00:85:f2:38:df:
                    13:67:8a:87:e3:bc:40:d4:0d:70:8d:de:0b:f2:c3:
                    ab:6a:93:90:ca:50:18:70:0b:a2:27:f6:2b:92:17:
                    0a:cd:5a:59:54:d5:a1:3e:25:4c:b4:92:ec:39:37:
                    be:e9:8e:a6:03:10:06:0c:2c:d6:68:f3:40:3c:10:
                    34:88:ad:1e:fb:a1:4c:82:84:20:7b:4f:48:d6:7f:
                    da:79:91:30:0e:d4:4a:39:c5:61:74:e1:58:58:6f:
                    4d:67:e2:c5:46:3e:5e:46:09:c8:4a:bb:f0:6c:f6:
                    d0:00:66:d0:ad:b6:2e:c1:bd:ce:9c:56:d7:33:b1:
                    ce:b6:17:40:cd:3c:77:90:85:23:b3:80:00:de:47:
                    de:7e:cf:65:c1:3b:c7:13:07:cb:38:c8:71:d6:1f:
                    72:d1:dd:ec:3f:1a:07:a3:aa:46:60:21:88:aa:2c:
                    bb:fb:f1:50:5b:26:f2:bc:f5:fa:56:30:be:ea:33:
                    12:77:60:65:8a:71:78:d9:7d:52:c9:83:6a:54:35:
                    ac:00:a6:9e:6d:e8:48:77:75:99:fb:eb:bc:31:97:
                    15:73
                Exponent: 65537 (0x10001)
        X509v3 extensions:
            X509v3 Basic Constraints: 
                CA:FALSE
            X509v3 Subject Key Identifier: 
                3C:4F:13:43:6E:5E:91:B1:2E:47:7E:E4:70:98:22:5F:00:F4:FC:C5
            X509v3 Authority Key Identifier: 
                keyid:6A:86:13:A4:28:A7:01:5C:FD:76:36:0A:55:F1:09:F4:E3:9D:4F:1B
                DirName:/CN=host
                serial:1F:AB:E5:5C:71:DE:57:F2:27:B7:D8:AC:7A:B7:EE:AA:2A:88:3C:C0
            X509v3 Extended Key Usage: 
                TLS Web Client Authentication
            X509v3 Key Usage: 
                Digital Signature
    Signature Algorithm: sha256WithRSAEncryption
    Signature Value:
        b5:aa:86:f8:e2:30:b0:6d:70:3b:fd:49:75:0f:5c:4e:43:ad:
        19:46:18:21:ce:7f:04:d7:44:e8:eb:1e:ec:2b:9e:02:cd:64:
        5f:ed:e9:70:27:2b:cc:ea:00:36:93:d3:ce:da:5a:00:8f:50:
        d5:c6:44:2a:58:80:f5:4b:14:dd:d1:8b:74:30:f4:36:9c:51:
        5f:ec:2c:e9:f1:04:ce:88:7f:d2:ee:d3:ea:66:f0:be:7e:97:
        45:46:d4:8c:e7:78:70:7a:2c:79:2a:68:c6:f0:70:24:76:d2:
        b9:3b:56:09:47:a6:80:1b:55:9c:12:13:76:65:68:4c:30:4f:
        f8:a9:ca:f0:e0:5f:cf:b8:19:81:9b:7f:be:c4:01:9e:be:8c:
        ee:9e:94:75:03:10:f6:ba:6f:a2:b0:20:e6:33:7c:f8:6f:6d:
        c8:fc:d9:33:b2:7a:f8:f0:62:96:2b:bd:62:c7:1e:f0:35:1d:
        68:e9:92:3f:0a:d5:17:39:fb:aa:09:a3:16:f7:bc:82:ad:a8:
        85:45:30:3c:4e:c5:52:6f:8a:ee:74:b5:45:e5:d3:0f:fc:d2:
        c8:70:a4:fc:84:20:08:81:55:88:ac:90:84:f2:d1:6b:24:62:
        d8:29:e6:d5:a4:2f:05:23:e5:62:4c:9c:a4:29:79:87:7b:e3:
        61:ed:85:77
-----BEGIN CERTIFICATE-----
MIIDRDCCAiygAwIBAgIQYFVX+/hqNAlL/bfcqlRFYTANBgkqhkiG9w0BAQsFADAP
MQ0wCwYDVQQDDARob3N0MB4XDTI0MTExOTE4NDQwMFoXDTI3MDIyMjE4NDQwMFow
DzENMAsGA1UEAwwEaG9zdDCCASIwDQYJKoZIhvcNAQEBBQADggEPADCCAQoCggEB
AL1pj9nk3b7vl8TpDL5yHa8zsZTdnMx/oTYU67aW0bHa7CWu3ika7ACF8jjfE2eK
h+O8QNQNcI3eC/LDq2qTkMpQGHALoif2K5IXCs1aWVTVoT4lTLSS7Dk3vumOpgMQ
Bgws1mjzQDwQNIitHvuhTIKEIHtPSNZ/2nmRMA7USjnFYXThWFhvTWfixUY+XkYJ
yEq78Gz20ABm0K22LsG9zpxW1zOxzrYXQM08d5CFI7OAAN5H3n7PZcE7xxMHyzjI
cdYfctHd7D8aB6OqRmAhiKosu/vxUFsm8rz1+lYwvuozEndgZYpxeNl9UsmDalQ1
rACmnm3oSHd1mfvrvDGXFXMCAwEAAaOBmzCBmDAJBgNVHRMEAjAAMB0GA1UdDgQW
BBQ8TxNDbl6RsS5HfuRwmCJfAPT8xTBKBgNVHSMEQzBBgBRqhhOkKKcBXP12NgpV
8Qn0451PG6ETpBEwDzENMAsGA1UEAwwEaG9zdIIUH6vlXHHeV/Int9iserfuqiqI
PMAwEwYDVR0lBAwwCgYIKwYBBQUHAwIwCwYDVR0PBAQDAgeAMA0GCSqGSIb3DQEB
CwUAA4IBAQC1qob44jCwbXA7/Ul1D1xOQ60ZRhghzn8E10To6x7sK54CzWRf7elw
JyvM6gA2k9PO2loAj1DVxkQqWID1SxTd0Yt0MPQ2nFFf7Czp8QTOiH/S7tPqZvC+
fpdFRtSM53hweix5KmjG8HAkdtK5O1YJR6aAG1WcEhN2ZWhMME/4qcrw4F/PuBmB
m3++xAGevozunpR1AxD2um+isCDmM3z4b23I/Nkzsnr48GKWK71ixx7wNR1o6ZI/
CtUXOfuqCaMW97yCraiFRTA8TsVSb4rudLVF5dMP/NLIcKT8hCAIgVWIrJCE8tFr
JGLYKebVpC8FI+ViTJykKXmHe+Nh7YV3
-----END CERTIFICATE-----
