Certificate:
    Data:
        Version: 3 (0x2)
        Serial Number:
            c5:8f:cd:cf:5a:4a:25:65:29:10:18:21:b6:ae:14:ee
        Signature Algorithm: sha256WithRSAEncryption
        Issuer: CN=localhost
        Validity
            Not Before: Aug 16 20:40:41 2022 GMT
            Not After : Nov 18 20:40:41 2024 GMT
        Subject: CN=host
        Subject Public Key Info:
            Public Key Algorithm: rsaEncryption
                RSA Public-Key: (2048 bit)
                Modulus:
                    00:bc:6a:c9:37:11:2c:90:41:2c:6b:59:23:16:19:
                    b1:c7:d0:f6:2d:fe:24:d2:56:8c:ab:ac:09:f8:69:
                    e1:00:57:5a:43:bf:ba:3d:65:67:67:ce:4f:9f:62:
                    70:50:0b:f4:9d:8f:33:87:33:cd:c3:46:58:c3:6a:
                    52:5f:a2:b4:c8:bd:82:ec:44:0d:96:b0:0d:69:ea:
                    39:14:25:f9:65:a4:46:f1:e1:65:45:32:81:79:36:
                    b2:52:6b:dc:23:48:29:d7:65:a9:44:84:11:30:5b:
                    c3:8a:7e:8b:f6:f8:cf:ad:9f:7d:78:25:da:76:ba:
                    19:ad:4c:e5:e5:64:82:e1:46:e7:d3:d3:41:1e:bd:
                    02:37:50:41:0c:d7:cb:0b:b7:c0:9f:b5:38:ed:a0:
                    a4:83:b8:09:e0:ee:68:27:68:2b:9d:ab:a4:b9:64:
                    b3:8a:d9:4b:b2:4f:43:be:d4:e4:e0:cd:84:56:08:
                    9e:ce:ed:5a:74:a1:df:10:ba:78:a3:c4:d2:04:45:
                    7e:2a:e4:2c:71:f3:15:4f:a6:a2:22:f5:83:cf:a8:
                    06:34:1e:9b:19:c8:b3:d7:8e:7e:12:18:08:9a:09:
                    f7:3a:20:dd:96:0e:1b:53:73:47:88:0f:33:b1:a9:
                    36:87:43:e9:e8:2b:16:43:f3:68:56:96:d8:64:bb:
                    88:87
                Exponent: 65537 (0x10001)
        X509v3 extensions:
            X509v3 Basic Constraints: 
                CA:FALSE
            X509v3 Subject Key Identifier: 
                3A:B8:3A:D0:40:C3:AD:78:53:FD:80:72:0C:CD:33:C2:D9:0F:A7:E8
            X509v3 Authority Key Identifier: 
                keyid:73:46:A2:74:86:01:69:28:8C:24:1E:6B:C5:B4:5D:F4:A7:6B:5F:F6
                DirName:/CN=localhost
                serial:5D:60:7F:7C:4A:E8:80:46:F4:C6:71:BB:4C:67:E3:C5:5A:DD:1E:95

            X509v3 Extended Key Usage: 
                TLS Web Client Authentication
            X509v3 Key Usage: 
                Digital Signature
    Signature Algorithm: sha256WithRSAEncryption
         55:51:ac:b4:34:2e:ee:26:c3:7d:d7:64:59:d7:39:20:30:76:
         42:7b:a4:e7:aa:61:fd:09:4a:f9:07:2b:41:4e:2d:bc:c2:68:
         e2:04:b5:4b:3f:21:a7:d9:37:ec:89:c9:38:ee:04:78:b5:d2:
         88:e8:81:0d:5e:53:8b:7a:a2:3f:a8:9e:7b:c5:8c:01:51:1b:
         c2:fc:fa:e5:4a:8a:13:4c:19:8c:ff:40:9e:4a:04:e3:51:1e:
         01:1c:f2:e8:d2:d1:50:36:a5:d5:d8:61:5c:83:0b:40:7e:f1:
         a3:fc:02:00:99:40:fe:ad:32:01:dc:0e:ef:ff:50:a1:d5:e3:
         60:45:d8:a0:88:8d:60:b6:bb:fe:5b:21:16:f6:cf:98:94:cf:
         90:69:10:90:9a:b2:ca:38:14:ef:a0:f4:35:d6:e9:7f:de:dc:
         7d:19:73:a1:27:65:9a:93:c0:78:fa:a1:3d:4b:2c:1f:ac:c9:
         9c:1c:64:56:ac:ca:56:b7:da:26:18:b4:f3:c8:6d:95:00:64:
         d8:b2:79:44:63:fb:05:45:5d:db:b9:45:99:a4:56:9f:15:b5:
         67:c2:4c:24:84:29:78:fc:6a:e3:0f:62:e2:32:50:eb:fc:e6:
         c3:e3:cd:dd:62:f3:2a:82:a3:94:1e:51:05:6a:5b:5d:4c:6b:
         aa:70:0f:a5
-----BEGIN CERTIFICATE-----
MIIDTzCCAjegAwIBAgIRAMWPzc9aSiVlKRAYIbauFO4wDQYJKoZIhvcNAQELBQAw
FDESMBAGA1UEAwwJbG9jYWxob3N0MB4XDTIyMDgxNjIwNDA0MVoXDTI0MTExODIw
NDA0MVowDzENMAsGA1UEAwwEaG9zdDCCASIwDQYJKoZIhvcNAQEBBQADggEPADCC
AQoCggEBALxqyTcRLJBBLGtZIxYZscfQ9i3+JNJWjKusCfhp4QBXWkO/uj1lZ2fO
T59icFAL9J2PM4czzcNGWMNqUl+itMi9guxEDZawDWnqORQl+WWkRvHhZUUygXk2
slJr3CNIKddlqUSEETBbw4p+i/b4z62ffXgl2na6Ga1M5eVkguFG59PTQR69AjdQ
QQzXywu3wJ+1OO2gpIO4CeDuaCdoK52rpLlks4rZS7JPQ77U5ODNhFYIns7tWnSh
3xC6eKPE0gRFfirkLHHzFU+moiL1g8+oBjQemxnIs9eOfhIYCJoJ9zog3ZYOG1Nz
R4gPM7GpNodD6egrFkPzaFaW2GS7iIcCAwEAAaOBoDCBnTAJBgNVHRMEAjAAMB0G
A1UdDgQWBBQ6uDrQQMOteFP9gHIMzTPC2Q+n6DBPBgNVHSMESDBGgBRzRqJ0hgFp
KIwkHmvFtF30p2tf9qEYpBYwFDESMBAGA1UEAwwJbG9jYWxob3N0ghRdYH98SuiA
RvTGcbtMZ+PFWt0elTATBgNVHSUEDDAKBggrBgEFBQcDAjALBgNVHQ8EBAMCB4Aw
DQYJKoZIhvcNAQELBQADggEBAFVRrLQ0Lu4mw33XZFnXOSAwdkJ7pOeqYf0JSvkH
K0FOLbzCaOIEtUs/IafZN+yJyTjuBHi10ojogQ1eU4t6oj+onnvFjAFRG8L8+uVK
ihNMGYz/QJ5KBONRHgEc8ujS0VA2pdXYYVyDC0B+8aP8AgCZQP6tMgHcDu//UKHV
42BF2KCIjWC2u/5bIRb2z5iUz5BpEJCasso4FO+g9DXW6X/e3H0Zc6EnZZqTwHj6
oT1LLB+syZwcZFasyla32iYYtPPIbZUAZNiyeURj+wVFXdu5RZmkVp8VtWfCTCSE
KXj8auMPYuIyUOv85sPjzd1i8yqCo5QeUQVqW11Ma6pwD6U=
-----END CERTIFICATE-----
